#include <math.h>
#include <stdio.h>
#include <stdlib.h>
#include <string.h>

int main()
{   int i,n,j;
	char c[100];
	scanf("%d",&n);
	for(i=0;i<n;i++){
		scanf("%s",c);
		if(c[strlen(c)-1]=='r'){
			for(j=0;j<strlen(c)-2;j++){
				printf("%c",c[j]);
			}
			printf("\n");
		}
		if(c[strlen(c)-1]=='y'){
			for(j=0;j<strlen(c)-2;j++){
				printf("%c",c[j]);
			}
			printf("\n");
		}
		if(c[strlen(c)-1]=='g'){
			for(j=0;j<strlen(c)-3;j++){
				printf("%c",c[j]);
			}
			printf("\n");
		}
	}
	return 0;
}