; ModuleID = '57/630.c'
source_filename = "57/630.c"
target datalayout = "e-m:e-p270:32:32-p271:32:32-p272:64:64-i64:64-f80:128-n8:16:32:64-S128"
target triple = "x86_64-pc-linux-gnu"

@.str = private unnamed_addr constant [3 x i8] c"%d\00", align 1
@.str.1 = private unnamed_addr constant [3 x i8] c"%s\00", align 1
@.str.2 = private unnamed_addr constant [3 x i8] c"%c\00", align 1
@.str.3 = private unnamed_addr constant [2 x i8] c"\0A\00", align 1

; Function Attrs: noinline nounwind uwtable
define dso_local i32 @main() #0 {
  %1 = alloca i32, align 4
  %2 = alloca i32, align 4
  %3 = alloca i32, align 4
  %4 = alloca i32, align 4
  %5 = alloca [100 x i8], align 16
  store i32 0, i32* %1, align 4
  %6 = call i32 (i8*, ...) @__isoc99_scanf(i8* getelementptr inbounds ([3 x i8], [3 x i8]* @.str, i64 0, i64 0), i32* %3)
  store i32 0, i32* %2, align 4
  br label %7

7:                                                ; preds = %98, %0
  %8 = load i32, i32* %2, align 4
  %9 = load i32, i32* %3, align 4
  %10 = icmp slt i32 %8, %9
  br i1 %10, label %11, label %101

11:                                               ; preds = %7
  %12 = getelementptr inbounds [100 x i8], [100 x i8]* %5, i64 0, i64 0
  %13 = call i32 (i8*, ...) @__isoc99_scanf(i8* getelementptr inbounds ([3 x i8], [3 x i8]* @.str.1, i64 0, i64 0), i8* %12)
  %14 = getelementptr inbounds [100 x i8], [100 x i8]* %5, i64 0, i64 0
  %15 = call i64 @strlen(i8* %14) #3
  %16 = sub i64 %15, 1
  %17 = getelementptr inbounds [100 x i8], [100 x i8]* %5, i64 0, i64 %16
  %18 = load i8, i8* %17, align 1
  %19 = sext i8 %18 to i32
  %20 = icmp eq i32 %19, 114
  br i1 %20, label %21, label %41

21:                                               ; preds = %11
  store i32 0, i32* %4, align 4
  br label %22

22:                                               ; preds = %36, %21
  %23 = load i32, i32* %4, align 4
  %24 = sext i32 %23 to i64
  %25 = getelementptr inbounds [100 x i8], [100 x i8]* %5, i64 0, i64 0
  %26 = call i64 @strlen(i8* %25) #3
  %27 = sub i64 %26, 2
  %28 = icmp ult i64 %24, %27
  br i1 %28, label %29, label %39

29:                                               ; preds = %22
  %30 = load i32, i32* %4, align 4
  %31 = sext i32 %30 to i64
  %32 = getelementptr inbounds [100 x i8], [100 x i8]* %5, i64 0, i64 %31
  %33 = load i8, i8* %32, align 1
  %34 = sext i8 %33 to i32
  %35 = call i32 (i8*, ...) @printf(i8* getelementptr inbounds ([3 x i8], [3 x i8]* @.str.2, i64 0, i64 0), i32 %34)
  br label %36

36:                                               ; preds = %29
  %37 = load i32, i32* %4, align 4
  %38 = add nsw i32 %37, 1
  store i32 %38, i32* %4, align 4
  br label %22

39:                                               ; preds = %22
  %40 = call i32 (i8*, ...) @printf(i8* getelementptr inbounds ([2 x i8], [2 x i8]* @.str.3, i64 0, i64 0))
  br label %41

41:                                               ; preds = %39, %11
  %42 = getelementptr inbounds [100 x i8], [100 x i8]* %5, i64 0, i64 0
  %43 = call i64 @strlen(i8* %42) #3
  %44 = sub i64 %43, 1
  %45 = getelementptr inbounds [100 x i8], [100 x i8]* %5, i64 0, i64 %44
  %46 = load i8, i8* %45, align 1
  %47 = sext i8 %46 to i32
  %48 = icmp eq i32 %47, 121
  br i1 %48, label %49, label %69

49:                                               ; preds = %41
  store i32 0, i32* %4, align 4
  br label %50

50:                                               ; preds = %64, %49
  %51 = load i32, i32* %4, align 4
  %52 = sext i32 %51 to i64
  %53 = getelementptr inbounds [100 x i8], [100 x i8]* %5, i64 0, i64 0
  %54 = call i64 @strlen(i8* %53) #3
  %55 = sub i64 %54, 2
  %56 = icmp ult i64 %52, %55
  br i1 %56, label %57, label %67

57:                                               ; preds = %50
  %58 = load i32, i32* %4, align 4
  %59 = sext i32 %58 to i64
  %60 = getelementptr inbounds [100 x i8], [100 x i8]* %5, i64 0, i64 %59
  %61 = load i8, i8* %60, align 1
  %62 = sext i8 %61 to i32
  %63 = call i32 (i8*, ...) @printf(i8* getelementptr inbounds ([3 x i8], [3 x i8]* @.str.2, i64 0, i64 0), i32 %62)
  br label %64

64:                                               ; preds = %57
  %65 = load i32, i32* %4, align 4
  %66 = add nsw i32 %65, 1
  store i32 %66, i32* %4, align 4
  br label %50

67:                                               ; preds = %50
  %68 = call i32 (i8*, ...) @printf(i8* getelementptr inbounds ([2 x i8], [2 x i8]* @.str.3, i64 0, i64 0))
  br label %69

69:                                               ; preds = %67, %41
  %70 = getelementptr inbounds [100 x i8], [100 x i8]* %5, i64 0, i64 0
  %71 = call i64 @strlen(i8* %70) #3
  %72 = sub i64 %71, 1
  %73 = getelementptr inbounds [100 x i8], [100 x i8]* %5, i64 0, i64 %72
  %74 = load i8, i8* %73, align 1
  %75 = sext i8 %74 to i32
  %76 = icmp eq i32 %75, 103
  br i1 %76, label %77, label %97

77:                                               ; preds = %69
  store i32 0, i32* %4, align 4
  br label %78

78:                                               ; preds = %92, %77
  %79 = load i32, i32* %4, align 4
  %80 = sext i32 %79 to i64
  %81 = getelementptr inbounds [100 x i8], [100 x i8]* %5, i64 0, i64 0
  %82 = call i64 @strlen(i8* %81) #3
  %83 = sub i64 %82, 3
  %84 = icmp ult i64 %80, %83
  br i1 %84, label %85, label %95

85:                                               ; preds = %78
  %86 = load i32, i32* %4, align 4
  %87 = sext i32 %86 to i64
  %88 = getelementptr inbounds [100 x i8], [100 x i8]* %5, i64 0, i64 %87
  %89 = load i8, i8* %88, align 1
  %90 = sext i8 %89 to i32
  %91 = call i32 (i8*, ...) @printf(i8* getelementptr inbounds ([3 x i8], [3 x i8]* @.str.2, i64 0, i64 0), i32 %90)
  br label %92

92:                                               ; preds = %85
  %93 = load i32, i32* %4, align 4
  %94 = add nsw i32 %93, 1
  store i32 %94, i32* %4, align 4
  br label %78

95:                                               ; preds = %78
  %96 = call i32 (i8*, ...) @printf(i8* getelementptr inbounds ([2 x i8], [2 x i8]* @.str.3, i64 0, i64 0))
  br label %97

97:                                               ; preds = %95, %69
  br label %98

98:                                               ; preds = %97
  %99 = load i32, i32* %2, align 4
  %100 = add nsw i32 %99, 1
  store i32 %100, i32* %2, align 4
  br label %7

101:                                              ; preds = %7
  ret i32 0
}

declare dso_local i32 @__isoc99_scanf(i8*, ...) #1

; Function Attrs: nounwind readonly
declare dso_local i64 @strlen(i8*) #2

declare dso_local i32 @printf(i8*, ...) #1


!llvm.module.flags = !{!0}
!llvm.ident = !{!1}

!0 = !{i32 1, !"wchar_size", i32 4}
!1 = !{!"clang version 10.0.0-4ubuntu1 "}
